; ModuleID = 'source-C-CXX/3/596.cpp'
source_filename = "source-C-CXX/3/596.cpp"
target datalayout = "e-m:e-p270:32:32-p271:32:32-p272:64:64-i64:64-f80:128-n8:16:32:64-S128"
target triple = "x86_64-pc-linux-gnu"

%"class.std::ios_base::Init" = type { i8 }
%"class.std::basic_istream" = type { i32 (...)**, i64, %"class.std::basic_ios" }
%"class.std::basic_ios" = type { %"class.std::ios_base", %"class.std::basic_ostream"*, i8, i8, %"class.std::basic_streambuf"*, %"class.std::ctype"*, %"class.std::num_put"*, %"class.std::num_get"* }
%"class.std::ios_base" = type { i32 (...)**, i64, i64, i32, i32, i32, %"struct.std::ios_base::_Callback_list"*, %"struct.std::ios_base::_Words", [8 x %"struct.std::ios_base::_Words"], i32, %"struct.std::ios_base::_Words"*, %"class.std::locale" }
%"struct.std::ios_base::_Callback_list" = type { %"struct.std::ios_base::_Callback_list"*, void (i32, %"class.std::ios_base"*, i32)*, i32, i32 }
%"struct.std::ios_base::_Words" = type { i8*, i64 }
%"class.std::locale" = type { %"class.std::locale::_Impl"* }
%"class.std::locale::_Impl" = type { i32, %"class.std::locale::facet"**, i64, %"class.std::locale::facet"**, i8** }
%"class.std::locale::facet" = type <{ i32 (...)**, i32, [4 x i8] }>
%"class.std::basic_ostream" = type { i32 (...)**, %"class.std::basic_ios" }
%"class.std::basic_streambuf" = type { i32 (...)**, i8*, i8*, i8*, i8*, i8*, i8*, %"class.std::locale" }
%"class.std::ctype" = type <{ %"class.std::locale::facet.base", [4 x i8], %struct.__locale_struct*, i8, [7 x i8], i32*, i32*, i16*, i8, [256 x i8], [256 x i8], i8, [6 x i8] }>
%"class.std::locale::facet.base" = type <{ i32 (...)**, i32 }>
%struct.__locale_struct = type { [13 x %struct.__locale_data*], i16*, i32*, i32*, [13 x i8*] }
%struct.__locale_data = type opaque
%"class.std::num_put" = type { %"class.std::locale::facet.base", [4 x i8] }
%"class.std::num_get" = type { %"class.std::locale::facet.base", [4 x i8] }

@_ZStL8__ioinit = internal global %"class.std::ios_base::Init" zeroinitializer, align 1
@__dso_handle = external hidden global i8
@_ZSt3cin = external global %"class.std::basic_istream", align 8
@_ZSt4cout = external global %"class.std::basic_ostream", align 8
@llvm.global_ctors = appending global [1 x { i32, void ()*, i8* }] [{ i32, void ()*, i8* } { i32 65535, void ()* @_GLOBAL__sub_I_596.cpp, i8* null }]

declare void @_ZNSt8ios_base4InitC1Ev(%"class.std::ios_base::Init"* nonnull align 1 dereferenceable(1)) unnamed_addr #0

; Function Attrs: nounwind
declare void @_ZNSt8ios_base4InitD1Ev(%"class.std::ios_base::Init"* nonnull align 1 dereferenceable(1)) unnamed_addr #1

; Function Attrs: nofree nounwind
declare i32 @__cxa_atexit(void (i8*)*, i8*, i8*) local_unnamed_addr #2

; Function Attrs: mustprogress norecurse sspstrong uwtable
define dso_local i32 @main() local_unnamed_addr #3 {
  %1 = alloca [1000 x [1000 x i32]], align 16
  %2 = alloca [1000 x i32], align 16
  %3 = alloca i32, align 4
  %4 = alloca i32, align 4
  %5 = bitcast [1000 x [1000 x i32]]* %1 to i8*
  call void @llvm.lifetime.start.p0i8(i64 4000000, i8* nonnull %5) #7
  %6 = bitcast [1000 x i32]* %2 to i8*
  call void @llvm.lifetime.start.p0i8(i64 4000, i8* nonnull %6) #7
  %7 = bitcast i32* %3 to i8*
  call void @llvm.lifetime.start.p0i8(i64 4, i8* nonnull %7) #7
  %8 = bitcast i32* %4 to i8*
  call void @llvm.lifetime.start.p0i8(i64 4, i8* nonnull %8) #7
  %9 = call nonnull align 8 dereferenceable(16) %"class.std::basic_istream"* @_ZNSirsERi(%"class.std::basic_istream"* nonnull align 8 dereferenceable(16) @_ZSt3cin, i32* nonnull align 4 dereferenceable(4) %3)
  %10 = call nonnull align 8 dereferenceable(16) %"class.std::basic_istream"* @_ZNSirsERi(%"class.std::basic_istream"* nonnull align 8 dereferenceable(16) %9, i32* nonnull align 4 dereferenceable(4) %4)
  %11 = load i32, i32* %3, align 4, !tbaa !5
  %12 = icmp sgt i32 %11, 0
  %13 = load i32, i32* %4, align 4, !tbaa !5
  %14 = icmp sgt i32 %13, 0
  %15 = select i1 %12, i1 %14, i1 false
  br i1 %15, label %16, label %21

16:                                               ; preds = %0, %44
  %17 = phi i32 [ %45, %44 ], [ %11, %0 ]
  %18 = phi i32 [ %46, %44 ], [ %13, %0 ]
  %19 = phi i64 [ %47, %44 ], [ 0, %0 ]
  %20 = icmp sgt i32 %18, 0
  br i1 %20, label %34, label %44

21:                                               ; preds = %44, %0
  %22 = phi i32 [ %13, %0 ], [ %46, %44 ]
  %23 = phi i32 [ %11, %0 ], [ %45, %44 ]
  %24 = add i32 %22, %23
  %25 = icmp sgt i32 %24, 0
  br i1 %25, label %26, label %154

26:                                               ; preds = %21
  %27 = sext i32 %22 to i64
  %28 = zext i32 %24 to i64
  %29 = add nsw i64 %28, -1
  %30 = and i64 %28, 3
  %31 = icmp ult i64 %29, 3
  br i1 %31, label %50, label %32

32:                                               ; preds = %26
  %33 = and i64 %28, 4294967292
  br label %65

34:                                               ; preds = %16, %34
  %35 = phi i64 [ %38, %34 ], [ 0, %16 ]
  %36 = getelementptr inbounds [1000 x [1000 x i32]], [1000 x [1000 x i32]]* %1, i64 0, i64 %19, i64 %35
  %37 = call nonnull align 8 dereferenceable(16) %"class.std::basic_istream"* @_ZNSirsERi(%"class.std::basic_istream"* nonnull align 8 dereferenceable(16) @_ZSt3cin, i32* nonnull align 4 dereferenceable(4) %36)
  %38 = add nuw nsw i64 %35, 1
  %39 = load i32, i32* %4, align 4, !tbaa !5
  %40 = sext i32 %39 to i64
  %41 = icmp slt i64 %38, %40
  br i1 %41, label %34, label %42, !llvm.loop !9

42:                                               ; preds = %34
  %43 = load i32, i32* %3, align 4, !tbaa !5
  br label %44

44:                                               ; preds = %42, %16
  %45 = phi i32 [ %43, %42 ], [ %17, %16 ]
  %46 = phi i32 [ %39, %42 ], [ %18, %16 ]
  %47 = add nuw nsw i64 %19, 1
  %48 = sext i32 %45 to i64
  %49 = icmp slt i64 %47, %48
  br i1 %49, label %16, label %21, !llvm.loop !11

50:                                               ; preds = %65, %26
  %51 = phi i64 [ 0, %26 ], [ %87, %65 ]
  %52 = icmp eq i64 %30, 0
  br i1 %52, label %64, label %53

53:                                               ; preds = %50, %53
  %54 = phi i64 [ %57, %53 ], [ %51, %50 ]
  %55 = phi i64 [ %62, %53 ], [ %30, %50 ]
  %56 = icmp slt i64 %54, %27
  %57 = add nuw nsw i64 %54, 1
  %58 = trunc i64 %57 to i32
  %59 = sub i32 %58, %22
  %60 = select i1 %56, i32 0, i32 %59
  %61 = getelementptr inbounds [1000 x i32], [1000 x i32]* %2, i64 0, i64 %54
  store i32 %60, i32* %61, align 4
  %62 = add i64 %55, -1
  %63 = icmp eq i64 %62, 0
  br i1 %63, label %64, label %53, !llvm.loop !13

64:                                               ; preds = %53, %50
  br i1 %25, label %94, label %154

65:                                               ; preds = %65, %32
  %66 = phi i64 [ 0, %32 ], [ %87, %65 ]
  %67 = phi i64 [ %33, %32 ], [ %92, %65 ]
  %68 = icmp slt i64 %66, %27
  %69 = or i64 %66, 1
  %70 = trunc i64 %69 to i32
  %71 = sub i32 %70, %22
  %72 = select i1 %68, i32 0, i32 %71
  %73 = getelementptr inbounds [1000 x i32], [1000 x i32]* %2, i64 0, i64 %66
  store i32 %72, i32* %73, align 16
  %74 = icmp slt i64 %69, %27
  %75 = or i64 %66, 2
  %76 = trunc i64 %75 to i32
  %77 = sub i32 %76, %22
  %78 = select i1 %74, i32 0, i32 %77
  %79 = getelementptr inbounds [1000 x i32], [1000 x i32]* %2, i64 0, i64 %69
  store i32 %78, i32* %79, align 4
  %80 = icmp slt i64 %75, %27
  %81 = or i64 %66, 3
  %82 = trunc i64 %81 to i32
  %83 = sub i32 %82, %22
  %84 = select i1 %80, i32 0, i32 %83
  %85 = getelementptr inbounds [1000 x i32], [1000 x i32]* %2, i64 0, i64 %75
  store i32 %84, i32* %85, align 8
  %86 = icmp slt i64 %81, %27
  %87 = add nuw nsw i64 %66, 4
  %88 = trunc i64 %87 to i32
  %89 = sub i32 %88, %22
  %90 = select i1 %86, i32 0, i32 %89
  %91 = getelementptr inbounds [1000 x i32], [1000 x i32]* %2, i64 0, i64 %81
  store i32 %90, i32* %91, align 4
  %92 = add i64 %67, -4
  %93 = icmp eq i64 %92, 0
  br i1 %93, label %50, label %65, !llvm.loop !15

94:                                               ; preds = %64, %147
  %95 = phi i32 [ %148, %147 ], [ %23, %64 ]
  %96 = phi i32 [ %149, %147 ], [ %22, %64 ]
  %97 = phi i64 [ %150, %147 ], [ 0, %64 ]
  %98 = getelementptr inbounds [1000 x i32], [1000 x i32]* %2, i64 0, i64 %97
  %99 = load i32, i32* %98, align 4, !tbaa !5
  %100 = icmp slt i32 %99, %95
  %101 = sext i32 %99 to i64
  %102 = icmp sge i64 %97, %101
  %103 = select i1 %100, i1 %102, i1 false
  br i1 %103, label %104, label %147

104:                                              ; preds = %94, %135
  %105 = phi i64 [ %139, %135 ], [ %101, %94 ]
  %106 = sub nsw i64 %97, %105
  %107 = getelementptr inbounds [1000 x [1000 x i32]], [1000 x [1000 x i32]]* %1, i64 0, i64 %105, i64 %106
  %108 = load i32, i32* %107, align 4, !tbaa !5
  %109 = call nonnull align 8 dereferenceable(8) %"class.std::basic_ostream"* @_ZNSolsEi(%"class.std::basic_ostream"* nonnull align 8 dereferenceable(8) @_ZSt4cout, i32 %108)
  %110 = bitcast %"class.std::basic_ostream"* %109 to i8**
  %111 = load i8*, i8** %110, align 8, !tbaa !16
  %112 = getelementptr i8, i8* %111, i64 -24
  %113 = bitcast i8* %112 to i64*
  %114 = load i64, i64* %113, align 8
  %115 = bitcast %"class.std::basic_ostream"* %109 to i8*
  %116 = add nsw i64 %114, 240
  %117 = getelementptr inbounds i8, i8* %115, i64 %116
  %118 = bitcast i8* %117 to %"class.std::ctype"**
  %119 = load %"class.std::ctype"*, %"class.std::ctype"** %118, align 8, !tbaa !18
  %120 = icmp eq %"class.std::ctype"* %119, null
  br i1 %120, label %121, label %122

121:                                              ; preds = %104
  call void @_ZSt16__throw_bad_castv() #8
  unreachable

122:                                              ; preds = %104
  %123 = getelementptr inbounds %"class.std::ctype", %"class.std::ctype"* %119, i64 0, i32 8
  %124 = load i8, i8* %123, align 8, !tbaa !22
  %125 = icmp eq i8 %124, 0
  br i1 %125, label %129, label %126

126:                                              ; preds = %122
  %127 = getelementptr inbounds %"class.std::ctype", %"class.std::ctype"* %119, i64 0, i32 9, i64 10
  %128 = load i8, i8* %127, align 1, !tbaa !24
  br label %135

129:                                              ; preds = %122
  call void @_ZNKSt5ctypeIcE13_M_widen_initEv(%"class.std::ctype"* nonnull align 8 dereferenceable(570) %119)
  %130 = bitcast %"class.std::ctype"* %119 to i8 (%"class.std::ctype"*, i8)***
  %131 = load i8 (%"class.std::ctype"*, i8)**, i8 (%"class.std::ctype"*, i8)*** %130, align 8, !tbaa !16
  %132 = getelementptr inbounds i8 (%"class.std::ctype"*, i8)*, i8 (%"class.std::ctype"*, i8)** %131, i64 6
  %133 = load i8 (%"class.std::ctype"*, i8)*, i8 (%"class.std::ctype"*, i8)** %132, align 8
  %134 = call signext i8 %133(%"class.std::ctype"* nonnull align 8 dereferenceable(570) %119, i8 signext 10)
  br label %135

135:                                              ; preds = %126, %129
  %136 = phi i8 [ %128, %126 ], [ %134, %129 ]
  %137 = call nonnull align 8 dereferenceable(8) %"class.std::basic_ostream"* @_ZNSo3putEc(%"class.std::basic_ostream"* nonnull align 8 dereferenceable(8) %109, i8 signext %136)
  %138 = call nonnull align 8 dereferenceable(8) %"class.std::basic_ostream"* @_ZNSo5flushEv(%"class.std::basic_ostream"* nonnull align 8 dereferenceable(8) %137)
  %139 = add nsw i64 %105, 1
  %140 = load i32, i32* %3, align 4, !tbaa !5
  %141 = sext i32 %140 to i64
  %142 = icmp slt i64 %139, %141
  %143 = icmp sgt i64 %97, %105
  %144 = select i1 %142, i1 %143, i1 false
  br i1 %144, label %104, label %145, !llvm.loop !25

145:                                              ; preds = %135
  %146 = load i32, i32* %4, align 4, !tbaa !5
  br label %147

147:                                              ; preds = %145, %94
  %148 = phi i32 [ %140, %145 ], [ %95, %94 ]
  %149 = phi i32 [ %146, %145 ], [ %96, %94 ]
  %150 = add nuw nsw i64 %97, 1
  %151 = add nsw i32 %148, %149
  %152 = sext i32 %151 to i64
  %153 = icmp slt i64 %150, %152
  br i1 %153, label %94, label %154, !llvm.loop !26

154:                                              ; preds = %147, %21, %64
  call void @llvm.lifetime.end.p0i8(i64 4, i8* nonnull %8) #7
  call void @llvm.lifetime.end.p0i8(i64 4, i8* nonnull %7) #7
  call void @llvm.lifetime.end.p0i8(i64 4000, i8* nonnull %6) #7
  call void @llvm.lifetime.end.p0i8(i64 4000000, i8* nonnull %5) #7
  ret i32 0
}

; Function Attrs: argmemonly mustprogress nofree nosync nounwind willreturn
declare void @llvm.lifetime.start.p0i8(i64 immarg, i8* nocapture) #4

declare nonnull align 8 dereferenceable(16) %"class.std::basic_istream"* @_ZNSirsERi(%"class.std::basic_istream"* nonnull align 8 dereferenceable(16), i32* nonnull align 4 dereferenceable(4)) local_unnamed_addr #0

declare nonnull align 8 dereferenceable(8) %"class.std::basic_ostream"* @_ZNSolsEi(%"class.std::basic_ostream"* nonnull align 8 dereferenceable(8), i32) local_unnamed_addr #0

; Function Attrs: argmemonly mustprogress nofree nosync nounwind willreturn
declare void @llvm.lifetime.end.p0i8(i64 immarg, i8* nocapture) #4

declare nonnull align 8 dereferenceable(8) %"class.std::basic_ostream"* @_ZNSo3putEc(%"class.std::basic_ostream"* nonnull align 8 dereferenceable(8), i8 signext) local_unnamed_addr #0

declare nonnull align 8 dereferenceable(8) %"class.std::basic_ostream"* @_ZNSo5flushEv(%"class.std::basic_ostream"* nonnull align 8 dereferenceable(8)) local_unnamed_addr #0

; Function Attrs: noreturn
declare void @_ZSt16__throw_bad_castv() local_unnamed_addr #5

declare void @_ZNKSt5ctypeIcE13_M_widen_initEv(%"class.std::ctype"* nonnull align 8 dereferenceable(570)) local_unnamed_addr #0

; Function Attrs: sspstrong uwtable
define internal void @_GLOBAL__sub_I_596.cpp() #6 section ".text.startup" {
  tail call void @_ZNSt8ios_base4InitC1Ev(%"class.std::ios_base::Init"* nonnull align 1 dereferenceable(1) @_ZStL8__ioinit)
  %1 = tail call i32 @__cxa_atexit(void (i8*)* bitcast (void (%"class.std::ios_base::Init"*)* @_ZNSt8ios_base4InitD1Ev to void (i8*)*), i8* getelementptr inbounds (%"class.std::ios_base::Init", %"class.std::ios_base::Init"* @_ZStL8__ioinit, i64 0, i32 0), i8* nonnull @__dso_handle) #7
  ret void
}


!llvm.module.flags = !{!0, !1, !2, !3}
!llvm.ident = !{!4}

!0 = !{i32 1, !"wchar_size", i32 4}
!1 = !{i32 7, !"PIC Level", i32 2}
!2 = !{i32 7, !"PIE Level", i32 2}
!3 = !{i32 7, !"uwtable", i32 1}
!4 = !{!"clang version 13.0.0"}
!5 = !{!6, !6, i64 0}
!6 = !{!"int", !7, i64 0}
!7 = !{!"omnipotent char", !8, i64 0}
!8 = !{!"Simple C++ TBAA"}
!9 = distinct !{!9, !10}
!10 = !{!"llvm.loop.mustprogress"}
!11 = distinct !{!11, !10, !12}
!12 = !{!"llvm.loop.unswitch.partial.disable"}
!13 = distinct !{!13, !14}
!14 = !{!"llvm.loop.unroll.disable"}
!15 = distinct !{!15, !10}
!16 = !{!17, !17, i64 0}
!17 = !{!"vtable pointer", !8, i64 0}
!18 = !{!19, !20, i64 240}
!19 = !{!"_ZTSSt9basic_iosIcSt11char_traitsIcEE", !20, i64 216, !7, i64 224, !21, i64 225, !20, i64 232, !20, i64 240, !20, i64 248, !20, i64 256}
!20 = !{!"any pointer", !7, i64 0}
!21 = !{!"bool", !7, i64 0}
!22 = !{!23, !7, i64 56}
!23 = !{!"_ZTSSt5ctypeIcE", !20, i64 16, !21, i64 24, !20, i64 32, !20, i64 40, !20, i64 48, !7, i64 56, !7, i64 57, !7, i64 313, !7, i64 569}
!24 = !{!7, !7, i64 0}
!25 = distinct !{!25, !10}
!26 = distinct !{!26, !10}
